; Function Attrs: mustprogress nofree norecurse nosync nounwind willreturn memory(argmem: readwrite) uwtable
define dso_local range(i32 0, 9) i32 @ossl_quic_vlint_decode(ptr noundef readonly captures(none) %0, i64 noundef %1, ptr noundef writeonly captures(none) %2) local_unnamed_addr #2 {
  %4 = icmp eq i64 %1, 0
  br i1 %4, label %65, label %5

5:                                                ; preds = %3
  %6 = load i8, ptr %0, align 1, !tbaa !4
  %7 = lshr i8 %6, 6
  %8 = zext nneg i8 %7 to i32
  %9 = shl nuw nsw i32 1, %8
  %10 = zext nneg i32 %9 to i64
  %11 = icmp ult i64 %1, %10
  br i1 %11, label %65, label %12

12:                                               ; preds = %5
  %13 = and i8 %6, 63
  %14 = zext nneg i8 %13 to i64
  switch i32 %9, label %29 [
    i32 1, label %ossl_quic_vlint_decode_unchecked.exit
    i32 2, label %15
    i32 4, label %17
  ]

15:                                               ; preds = %12
  %16 = shl nuw nsw i64 %14, 8
  br label %.sink.split.i

17:                                               ; preds = %12
  %18 = shl nuw nsw i64 %14, 24
  %19 = getelementptr inbounds nuw i8, ptr %0, i64 1
  %20 = load i8, ptr %19, align 1, !tbaa !4
  %21 = zext i8 %20 to i64
  %22 = shl nuw nsw i64 %21, 16
  %23 = or disjoint i64 %22, %18
  %24 = getelementptr inbounds nuw i8, ptr %0, i64 2
  %25 = load i8, ptr %24, align 1, !tbaa !4
  %26 = zext i8 %25 to i64
  %27 = shl nuw nsw i64 %26, 8
  %28 = or disjoint i64 %23, %27
  br label %.sink.split.i

29:                                               ; preds = %12
  %30 = shl nuw nsw i64 %14, 56
  %31 = getelementptr inbounds nuw i8, ptr %0, i64 1
  %32 = load i8, ptr %31, align 1, !tbaa !4
  %33 = zext i8 %32 to i64
  %34 = shl nuw nsw i64 %33, 48
  %35 = or disjoint i64 %34, %30
  %36 = getelementptr inbounds nuw i8, ptr %0, i64 2
  %37 = load i8, ptr %36, align 1, !tbaa !4
  %38 = zext i8 %37 to i64
  %39 = shl nuw nsw i64 %38, 40
  %40 = or disjoint i64 %35, %39
  %41 = getelementptr inbounds nuw i8, ptr %0, i64 3
  %42 = load i8, ptr %41, align 1, !tbaa !4
  %43 = zext i8 %42 to i64
  %44 = shl nuw nsw i64 %43, 32
  %45 = or disjoint i64 %40, %44
  %46 = getelementptr inbounds nuw i8, ptr %0, i64 4
  %47 = load i8, ptr %46, align 1, !tbaa !4
  %48 = zext i8 %47 to i64
  %49 = shl nuw nsw i64 %48, 24
  %50 = or disjoint i64 %45, %49
  %51 = getelementptr inbounds nuw i8, ptr %0, i64 5
  %52 = load i8, ptr %51, align 1, !tbaa !4
  %53 = zext i8 %52 to i64
  %54 = shl nuw nsw i64 %53, 16
  %55 = or disjoint i64 %50, %54
  %56 = getelementptr inbounds nuw i8, ptr %0, i64 6
  %57 = load i8, ptr %56, align 1, !tbaa !4
  %58 = zext i8 %57 to i64
  %59 = shl nuw nsw i64 %58, 8
  %60 = or disjoint i64 %55, %59
  br label %.sink.split.i

.sink.split.i:                                    ; preds = %29, %17, %15
  %.sink24.i = phi i64 [ 7, %29 ], [ 3, %17 ], [ 1, %15 ]
  %.sink.i = phi i64 [ %60, %29 ], [ %28, %17 ], [ %16, %15 ]
  %61 = getelementptr inbounds nuw i8, ptr %0, i64 %.sink24.i
  %62 = load i8, ptr %61, align 1, !tbaa !4
  %63 = zext i8 %62 to i64
  %64 = or i64 %.sink.i, %63
  br label %ossl_quic_vlint_decode_unchecked.exit

ossl_quic_vlint_decode_unchecked.exit:            ; preds = %12, %.sink.split.i
  %.0.i = phi i64 [ %14, %12 ], [ %64, %.sink.split.i ]
  store i64 %.0.i, ptr %2, align 8, !tbaa !7
  br label %65

65:                                               ; preds = %5, %3, %ossl_quic_vlint_decode_unchecked.exit
  %.0 = phi i32 [ %9, %ossl_quic_vlint_decode_unchecked.exit ], [ 0, %3 ], [ 0, %5 ]
  ret i32 %.0
}